target datalayout = "e-m:e-p270:32:32-p271:32:32-p272:64:64-i64:64-i128:128-f80:128-n8:16:32:64-S128"
target triple = "x86_64-pc-linux-gnu"

%"class.gmx::ArrayRef" = type { %"struct.gmx::ArrayRefIter", %"struct.gmx::ArrayRefIter" }
%"struct.gmx::ArrayRefIter" = type { ptr }
%union.t_iparams = type { %struct.anon.21 }
%struct.anon.21 = type { [3 x float], [3 x float], [3 x float], [3 x float] }
%struct.anon.5 = type { float, float, float }

; Function Attrs: mustprogress nounwind uwtable
define linkonce_odr noundef float @_ZSt4sqrtf(float noundef %0) #3 comdat {
  %2 = alloca float, align 4
  store float %0, ptr %2, align 4
  %3 = load float, ptr %2, align 4
  %4 = call float @sqrtf(float noundef %3) #4
  ret float %4
}

; Function Attrs: mustprogress nounwind uwtable
define internal noundef float @_ZL5iprodPKfS0_(ptr noundef %0, ptr noundef %1) #3 {
  %3 = alloca ptr, align 8
  %4 = alloca ptr, align 8
  store ptr %0, ptr %3, align 8
  store ptr %1, ptr %4, align 8
  %5 = load ptr, ptr %3, align 8
  %6 = getelementptr inbounds float, ptr %5, i64 0
  %7 = load float, ptr %6, align 4
  %8 = load ptr, ptr %4, align 8
  %9 = getelementptr inbounds float, ptr %8, i64 0
  %10 = load float, ptr %9, align 4
  %11 = load ptr, ptr %3, align 8
  %12 = getelementptr inbounds float, ptr %11, i64 1
  %13 = load float, ptr %12, align 4
  %14 = load ptr, ptr %4, align 8
  %15 = getelementptr inbounds float, ptr %14, i64 1
  %16 = load float, ptr %15, align 4
  %17 = fmul float %13, %16
  %18 = call float @llvm.fmuladd.f32(float %7, float %10, float %17)
  %19 = load ptr, ptr %3, align 8
  %20 = getelementptr inbounds float, ptr %19, i64 2
  %21 = load float, ptr %20, align 4
  %22 = load ptr, ptr %4, align 8
  %23 = getelementptr inbounds float, ptr %22, i64 2
  %24 = load float, ptr %23, align 4
  %25 = call float @llvm.fmuladd.f32(float %21, float %24, float %18)
  ret float %25
}

; Function Attrs: mustprogress uwtable
define internal noundef float @_ZL4normPKf(ptr noundef %0) #2 {
  %2 = alloca ptr, align 8
  store ptr %0, ptr %2, align 8
  %3 = load ptr, ptr %2, align 8
  %4 = load ptr, ptr %2, align 8
  %5 = call noundef float @_ZL5iprodPKfS0_(ptr noundef %3, ptr noundef %4)
  %6 = call noundef float @_ZSt4sqrtf(float noundef %5)
  ret float %6
}

; Function Attrs: mustprogress nounwind uwtable
define internal void @_ZL8rvec_subPKfS0_Pf(ptr noundef %0, ptr noundef %1, ptr noundef %2) #3 {
  %4 = alloca ptr, align 8
  %5 = alloca ptr, align 8
  %6 = alloca ptr, align 8
  %7 = alloca float, align 4
  %8 = alloca float, align 4
  %9 = alloca float, align 4
  store ptr %0, ptr %4, align 8
  store ptr %1, ptr %5, align 8
  store ptr %2, ptr %6, align 8
  %10 = load ptr, ptr %4, align 8
  %11 = getelementptr inbounds float, ptr %10, i64 0
  %12 = load float, ptr %11, align 4
  %13 = load ptr, ptr %5, align 8
  %14 = getelementptr inbounds float, ptr %13, i64 0
  %15 = load float, ptr %14, align 4
  %16 = fsub float %12, %15
  store float %16, ptr %7, align 4
  %17 = load ptr, ptr %4, align 8
  %18 = getelementptr inbounds float, ptr %17, i64 1
  %19 = load float, ptr %18, align 4
  %20 = load ptr, ptr %5, align 8
  %21 = getelementptr inbounds float, ptr %20, i64 1
  %22 = load float, ptr %21, align 4
  %23 = fsub float %19, %22
  store float %23, ptr %8, align 4
  %24 = load ptr, ptr %4, align 8
  %25 = getelementptr inbounds float, ptr %24, i64 2
  %26 = load float, ptr %25, align 4
  %27 = load ptr, ptr %5, align 8
  %28 = getelementptr inbounds float, ptr %27, i64 2
  %29 = load float, ptr %28, align 4
  %30 = fsub float %26, %29
  store float %30, ptr %9, align 4
  %31 = load float, ptr %7, align 4
  %32 = load ptr, ptr %6, align 8
  %33 = getelementptr inbounds float, ptr %32, i64 0
  store float %31, ptr %33, align 4
  %34 = load float, ptr %8, align 4
  %35 = load ptr, ptr %6, align 8
  %36 = getelementptr inbounds float, ptr %35, i64 1
  store float %34, ptr %36, align 4
  %37 = load float, ptr %9, align 4
  %38 = load ptr, ptr %6, align 8
  %39 = getelementptr inbounds float, ptr %38, i64 2
  store float %37, ptr %39, align 4
  ret void
}

; Function Attrs: mustprogress nounwind uwtable
define internal void @_ZL5svmulfPKfPf(float noundef %0, ptr noundef %1, ptr noundef %2) #3 {
  %4 = alloca float, align 4
  %5 = alloca ptr, align 8
  %6 = alloca ptr, align 8
  store float %0, ptr %4, align 4
  store ptr %1, ptr %5, align 8
  store ptr %2, ptr %6, align 8
  %7 = load float, ptr %4, align 4
  %8 = load ptr, ptr %5, align 8
  %9 = getelementptr inbounds float, ptr %8, i64 0
  %10 = load float, ptr %9, align 4
  %11 = fmul float %7, %10
  %12 = load ptr, ptr %6, align 8
  %13 = getelementptr inbounds float, ptr %12, i64 0
  store float %11, ptr %13, align 4
  %14 = load float, ptr %4, align 4
  %15 = load ptr, ptr %5, align 8
  %16 = getelementptr inbounds float, ptr %15, i64 1
  %17 = load float, ptr %16, align 4
  %18 = fmul float %14, %17
  %19 = load ptr, ptr %6, align 8
  %20 = getelementptr inbounds float, ptr %19, i64 1
  store float %18, ptr %20, align 4
  %21 = load float, ptr %4, align 4
  %22 = load ptr, ptr %5, align 8
  %23 = getelementptr inbounds float, ptr %22, i64 2
  %24 = load float, ptr %23, align 4
  %25 = fmul float %21, %24
  %26 = load ptr, ptr %6, align 8
  %27 = getelementptr inbounds float, ptr %26, i64 2
  store float %25, ptr %27, align 4
  ret void
}

; Function Attrs: mustprogress uwtable
define linkonce_odr noundef float @_ZN3gmx4normIfEENSt12remove_constIT_E4typeEPS2_(ptr noundef %0) #2 comdat {
  %2 = alloca ptr, align 8
  store ptr %0, ptr %2, align 8
  %3 = load ptr, ptr %2, align 8
  %4 = call noundef float @_ZL4normPKf(ptr noundef %3)
  ret float %4
}

; Function Attrs: mustprogress uwtable
define internal noundef i32 @_ZN12_GLOBAL__N_112pbc_rvec_subEPK5t_pbcPKfS4_Pf(ptr noundef %0, ptr noundef %1, ptr noundef %2, ptr noundef %3) #2 {
  %5 = alloca i32, align 4
  %6 = alloca ptr, align 8
  %7 = alloca ptr, align 8
  %8 = alloca ptr, align 8
  %9 = alloca ptr, align 8
  store ptr %0, ptr %6, align 8
  store ptr %1, ptr %7, align 8
  store ptr %2, ptr %8, align 8
  store ptr %3, ptr %9, align 8
  %10 = load ptr, ptr %6, align 8
  %11 = icmp ne ptr %10, null
  br i1 %11, label %12, label %18

12:                                               ; preds = %4
  %13 = load ptr, ptr %6, align 8
  %14 = load ptr, ptr %7, align 8
  %15 = load ptr, ptr %8, align 8
  %16 = load ptr, ptr %9, align 8
  %17 = call noundef i32 @_Z11pbc_dx_aiucPK5t_pbcPKfS3_Pf(ptr noundef %13, ptr noundef %14, ptr noundef %15, ptr noundef %16)
  store i32 %17, ptr %5, align 4
  br label %22

18:                                               ; preds = %4
  %19 = load ptr, ptr %7, align 8
  %20 = load ptr, ptr %8, align 8
  %21 = load ptr, ptr %9, align 8
  call void @_ZL8rvec_subPKfS0_Pf(ptr noundef %19, ptr noundef %20, ptr noundef %21)
  store i32 22, ptr %5, align 4
  br label %22

22:                                               ; preds = %18, %12
  %23 = load i32, ptr %5, align 4
  ret i32 %23
}

; Function Attrs: mustprogress uwtable
define internal noundef float @_ZN12_GLOBAL__N_115cross_bond_bondIL18BondedKernelFlavor3EEEfiPKiPK9t_iparamsPA3_KfPA4_fPA3_fPK5t_pbcfPfN3gmx8ArrayRefIS7_EEP8t_fcdataP12t_disresdataP12t_oriresdataPi(i32 noundef %0, ptr noundef %1, ptr noundef %2, ptr noundef %3, ptr noundef %4, ptr noundef %5, ptr noundef %6, float noundef %7, ptr noundef %8, ptr noundef byval(%"class.gmx::ArrayRef") align 8 %9, ptr noundef %10, ptr noundef %11, ptr noundef %12, ptr noundef %13) #2 {
  %15 = alloca i32, align 4
  %16 = alloca ptr, align 8
  %17 = alloca ptr, align 8
  %18 = alloca ptr, align 8
  %19 = alloca ptr, align 8
  %20 = alloca ptr, align 8
  %21 = alloca ptr, align 8
  %22 = alloca float, align 4
  %23 = alloca ptr, align 8
  %24 = alloca ptr, align 8
  %25 = alloca ptr, align 8
  %26 = alloca ptr, align 8
  %27 = alloca ptr, align 8
  %28 = alloca i32, align 4
  %29 = alloca i32, align 4
  %30 = alloca i32, align 4
  %31 = alloca i32, align 4
  %32 = alloca i32, align 4
  %33 = alloca i32, align 4
  %34 = alloca i32, align 4
  %35 = alloca i32, align 4
  %36 = alloca [3 x float], align 4
  %37 = alloca [3 x float], align 4
  %38 = alloca float, align 4
  %39 = alloca float, align 4
  %40 = alloca float, align 4
  %41 = alloca float, align 4
  %42 = alloca float, align 4
  %43 = alloca float, align 4
  %44 = alloca float, align 4
  %45 = alloca float, align 4
  %46 = alloca float, align 4
  %47 = alloca [3 x float], align 4
  %48 = alloca [3 x float], align 4
  %49 = alloca [3 x float], align 4
  store i32 %0, ptr %15, align 4
  store ptr %1, ptr %16, align 8
  store ptr %2, ptr %17, align 8
  store ptr %3, ptr %18, align 8
  store ptr %4, ptr %19, align 8
  store ptr %5, ptr %20, align 8
  store ptr %6, ptr %21, align 8
  store float %7, ptr %22, align 4
  store ptr %8, ptr %23, align 8
  store ptr %10, ptr %24, align 8
  store ptr %11, ptr %25, align 8
  store ptr %12, ptr %26, align 8
  store ptr %13, ptr %27, align 8
  store float 0.000000e+00, ptr %38, align 4
  store i32 0, ptr %28, align 4
  br label %50

50:                                               ; preds = %216, %14
  %51 = load i32, ptr %28, align 4
  %52 = load i32, ptr %15, align 4
  %53 = icmp slt i32 %51, %52
  br i1 %53, label %54, label %217

54:                                               ; preds = %50
  %55 = load ptr, ptr %16, align 8
  %56 = load i32, ptr %28, align 4
  %57 = add nsw i32 %56, 1
  store i32 %57, ptr %28, align 4
  %58 = sext i32 %56 to i64
  %59 = getelementptr inbounds i32, ptr %55, i64 %58
  %60 = load i32, ptr %59, align 4
  store i32 %60, ptr %32, align 4
  %61 = load ptr, ptr %16, align 8
  %62 = load i32, ptr %28, align 4
  %63 = add nsw i32 %62, 1
  store i32 %63, ptr %28, align 4
  %64 = sext i32 %62 to i64
  %65 = getelementptr inbounds i32, ptr %61, i64 %64
  %66 = load i32, ptr %65, align 4
  store i32 %66, ptr %29, align 4
  %67 = load ptr, ptr %16, align 8
  %68 = load i32, ptr %28, align 4
  %69 = add nsw i32 %68, 1
  store i32 %69, ptr %28, align 4
  %70 = sext i32 %68 to i64
  %71 = getelementptr inbounds i32, ptr %67, i64 %70
  %72 = load i32, ptr %71, align 4
  store i32 %72, ptr %30, align 4
  %73 = load ptr, ptr %16, align 8
  %74 = load i32, ptr %28, align 4
  %75 = add nsw i32 %74, 1
  store i32 %75, ptr %28, align 4
  %76 = sext i32 %74 to i64
  %77 = getelementptr inbounds i32, ptr %73, i64 %76
  %78 = load i32, ptr %77, align 4
  store i32 %78, ptr %31, align 4
  %79 = load ptr, ptr %17, align 8
  %80 = load i32, ptr %32, align 4
  %81 = sext i32 %80 to i64
  %82 = getelementptr inbounds %union.t_iparams, ptr %79, i64 %81
  %83 = getelementptr inbounds %struct.anon.5, ptr %82, i32 0, i32 0
  %84 = load float, ptr %83, align 4
  store float %84, ptr %44, align 4
  %85 = load ptr, ptr %17, align 8
  %86 = load i32, ptr %32, align 4
  %87 = sext i32 %86 to i64
  %88 = getelementptr inbounds %union.t_iparams, ptr %85, i64 %87
  %89 = getelementptr inbounds %struct.anon.5, ptr %88, i32 0, i32 1
  %90 = load float, ptr %89, align 4
  store float %90, ptr %45, align 4
  %91 = load ptr, ptr %17, align 8
  %92 = load i32, ptr %32, align 4
  %93 = sext i32 %92 to i64
  %94 = getelementptr inbounds %union.t_iparams, ptr %91, i64 %93
  %95 = getelementptr inbounds %struct.anon.5, ptr %94, i32 0, i32 2
  %96 = load float, ptr %95, align 4
  store float %96, ptr %46, align 4
  %97 = load ptr, ptr %21, align 8
  %98 = load ptr, ptr %18, align 8
  %99 = load i32, ptr %29, align 4
  %100 = sext i32 %99 to i64
  %101 = getelementptr inbounds [3 x float], ptr %98, i64 %100
  %102 = getelementptr inbounds [3 x float], ptr %101, i64 0, i64 0
  %103 = load ptr, ptr %18, align 8
  %104 = load i32, ptr %30, align 4
  %105 = sext i32 %104 to i64
  %106 = getelementptr inbounds [3 x float], ptr %103, i64 %105
  %107 = getelementptr inbounds [3 x float], ptr %106, i64 0, i64 0
  %108 = getelementptr inbounds [3 x float], ptr %36, i64 0, i64 0
  %109 = call noundef i32 @_ZN12_GLOBAL__N_112pbc_rvec_subEPK5t_pbcPKfS4_Pf(ptr noundef %97, ptr noundef %102, ptr noundef %107, ptr noundef %108)
  store i32 %109, ptr %34, align 4
  %110 = load ptr, ptr %21, align 8
  %111 = load ptr, ptr %18, align 8
  %112 = load i32, ptr %31, align 4
  %113 = sext i32 %112 to i64
  %114 = getelementptr inbounds [3 x float], ptr %111, i64 %113
  %115 = getelementptr inbounds [3 x float], ptr %114, i64 0, i64 0
  %116 = load ptr, ptr %18, align 8
  %117 = load i32, ptr %30, align 4
  %118 = sext i32 %117 to i64
  %119 = getelementptr inbounds [3 x float], ptr %116, i64 %118
  %120 = getelementptr inbounds [3 x float], ptr %119, i64 0, i64 0
  %121 = getelementptr inbounds [3 x float], ptr %37, i64 0, i64 0
  %122 = call noundef i32 @_ZN12_GLOBAL__N_112pbc_rvec_subEPK5t_pbcPKfS4_Pf(ptr noundef %110, ptr noundef %115, ptr noundef %120, ptr noundef %121)
  store i32 %122, ptr %35, align 4
  %123 = getelementptr inbounds [3 x float], ptr %36, i64 0, i64 0
  %124 = call noundef float @_ZN3gmx4normIfEENSt12remove_constIT_E4typeEPS2_(ptr noundef %123)
  store float %124, ptr %42, align 4
  %125 = getelementptr inbounds [3 x float], ptr %37, i64 0, i64 0
  %126 = call noundef float @_ZN3gmx4normIfEENSt12remove_constIT_E4typeEPS2_(ptr noundef %125)
  store float %126, ptr %43, align 4
  %127 = load float, ptr %42, align 4
  %128 = load float, ptr %44, align 4
  %129 = fsub float %127, %128
  store float %129, ptr %40, align 4
  %130 = load float, ptr %43, align 4
  %131 = load float, ptr %45, align 4
  %132 = fsub float %130, %131
  store float %132, ptr %41, align 4
  %133 = load float, ptr %46, align 4
  %134 = load float, ptr %40, align 4
  %135 = fmul float %133, %134
  %136 = load float, ptr %41, align 4
  %137 = fmul float %135, %136
  store float %137, ptr %39, align 4
  %138 = load float, ptr %39, align 4
  %139 = load float, ptr %38, align 4
  %140 = fadd float %139, %138
  store float %140, ptr %38, align 4
  %141 = load float, ptr %46, align 4
  %142 = fneg float %141
  %143 = load float, ptr %41, align 4
  %144 = fmul float %142, %143
  %145 = load float, ptr %42, align 4
  %146 = fdiv float %144, %145
  %147 = getelementptr inbounds [3 x float], ptr %36, i64 0, i64 0
  %148 = getelementptr inbounds [3 x float], ptr %47, i64 0, i64 0
  call void @_ZL5svmulfPKfPf(float noundef %146, ptr noundef %147, ptr noundef %148)
  %149 = load float, ptr %46, align 4
  %150 = fneg float %149
  %151 = load float, ptr %40, align 4
  %152 = fmul float %150, %151
  %153 = load float, ptr %43, align 4
  %154 = fdiv float %152, %153
  %155 = getelementptr inbounds [3 x float], ptr %37, i64 0, i64 0
  %156 = getelementptr inbounds [3 x float], ptr %49, i64 0, i64 0
  call void @_ZL5svmulfPKfPf(float noundef %154, ptr noundef %155, ptr noundef %156)
  store i32 0, ptr %33, align 4
  br label %157

157:                                              ; preds = %213, %54
  %158 = load i32, ptr %33, align 4
  %159 = icmp slt i32 %158, 3
  br i1 %159, label %160, label %216

160:                                              ; preds = %157
  %161 = load i32, ptr %33, align 4
  %162 = sext i32 %161 to i64
  %163 = getelementptr inbounds [3 x float], ptr %47, i64 0, i64 %162
  %164 = load float, ptr %163, align 4
  %165 = fneg float %164
  %166 = load i32, ptr %33, align 4
  %167 = sext i32 %166 to i64
  %168 = getelementptr inbounds [3 x float], ptr %49, i64 0, i64 %167
  %169 = load float, ptr %168, align 4
  %170 = fsub float %165, %169
  %171 = load i32, ptr %33, align 4
  %172 = sext i32 %171 to i64
  %173 = getelementptr inbounds [3 x float], ptr %48, i64 0, i64 %172
  store float %170, ptr %173, align 4
  %174 = load i32, ptr %33, align 4
  %175 = sext i32 %174 to i64
  %176 = getelementptr inbounds [3 x float], ptr %47, i64 0, i64 %175
  %177 = load float, ptr %176, align 4
  %178 = load ptr, ptr %19, align 8
  %179 = load i32, ptr %29, align 4
  %180 = sext i32 %179 to i64
  %181 = getelementptr inbounds [4 x float], ptr %178, i64 %180
  %182 = load i32, ptr %33, align 4
  %183 = sext i32 %182 to i64
  %184 = getelementptr inbounds [4 x float], ptr %181, i64 0, i64 %183
  %185 = load float, ptr %184, align 4
  %186 = fadd float %185, %177
  store float %186, ptr %184, align 4
  %187 = load i32, ptr %33, align 4
  %188 = sext i32 %187 to i64
  %189 = getelementptr inbounds [3 x float], ptr %48, i64 0, i64 %188
  %190 = load float, ptr %189, align 4
  %191 = load ptr, ptr %19, align 8
  %192 = load i32, ptr %30, align 4
  %193 = sext i32 %192 to i64
  %194 = getelementptr inbounds [4 x float], ptr %191, i64 %193
  %195 = load i32, ptr %33, align 4
  %196 = sext i32 %195 to i64
  %197 = getelementptr inbounds [4 x float], ptr %194, i64 0, i64 %196
  %198 = load float, ptr %197, align 4
  %199 = fadd float %198, %190
  store float %199, ptr %197, align 4
  %200 = load i32, ptr %33, align 4
  %201 = sext i32 %200 to i64
  %202 = getelementptr inbounds [3 x float], ptr %49, i64 0, i64 %201
  %203 = load float, ptr %202, align 4
  %204 = load ptr, ptr %19, align 8
  %205 = load i32, ptr %31, align 4
  %206 = sext i32 %205 to i64
  %207 = getelementptr inbounds [4 x float], ptr %204, i64 %206
  %208 = load i32, ptr %33, align 4
  %209 = sext i32 %208 to i64
  %210 = getelementptr inbounds [4 x float], ptr %207, i64 0, i64 %209
  %211 = load float, ptr %210, align 4
  %212 = fadd float %211, %203
  store float %212, ptr %210, align 4
  br label %213

213:                                              ; preds = %160
  %214 = load i32, ptr %33, align 4
  %215 = add nsw i32 %214, 1
  store i32 %215, ptr %33, align 4
  br label %157, !llvm.loop !173

216:                                              ; preds = %157
  br label %50, !llvm.loop !174

217:                                              ; preds = %50
  %218 = load float, ptr %38, align 4
  ret float %218
}