; Function Attrs: mustprogress uwtable
define internal noundef float @_ZN12_GLOBAL__N_115cross_bond_bondIL18BondedKernelFlavor3EEEfiPKiPK9t_iparamsPA3_KfPA4_fPA3_fPK5t_pbcfPfN3gmx8ArrayRefIS7_EEP8t_fcdataP12t_disresdataP12t_oriresdataPi(i32 noundef %0, ptr nocapture noundef readonly %1, ptr nocapture noundef readonly %2, ptr noundef %3, ptr nocapture noundef %4, ptr nocapture readnone %5, ptr noundef %6, float %7, ptr nocapture readnone %8, ptr nocapture noundef readnone byval(%"class.gmx::ArrayRef") align 8 %9, ptr nocapture readnone %10, ptr nocapture readnone %11, ptr nocapture readnone %12, ptr nocapture readnone %13) #4 {
  %15 = alloca [3 x float], align 8
  %16 = alloca [3 x float], align 8
  %17 = alloca [3 x float], align 8
  %18 = alloca [3 x float], align 8
  %19 = icmp sgt i32 %0, 0
  br i1 %19, label %.lr.ph, label %._crit_edge

.lr.ph:                                           ; preds = %14
  %.not.i = icmp eq ptr %6, null
  %20 = getelementptr inbounds i8, ptr %15, i64 8
  %21 = getelementptr inbounds i8, ptr %16, i64 8
  %22 = getelementptr inbounds i8, ptr %17, i64 8
  %23 = getelementptr inbounds i8, ptr %18, i64 8
  br label %27

.loopexit:                                        ; preds = %103
  %24 = fadd float %.05965, %89
  %25 = trunc nuw i64 %indvars.iv.next69 to i32
  %26 = icmp slt i32 %25, %0
  br i1 %26, label %27, label %._crit_edge, !llvm.loop !177

27:                                               ; preds = %.lr.ph, %.loopexit
  %indvars.iv68 = phi i64 [ 0, %.lr.ph ], [ %indvars.iv.next69, %.loopexit ]
  %.05965 = phi float [ 0.000000e+00, %.lr.ph ], [ %24, %.loopexit ]
  %28 = getelementptr inbounds i32, ptr %1, i64 %indvars.iv68
  %29 = load i32, ptr %28, align 4
  %30 = getelementptr i8, ptr %28, i64 4
  %31 = load i32, ptr %30, align 4
  %32 = or disjoint i64 %indvars.iv68, 3
  %33 = getelementptr i8, ptr %28, i64 8
  %34 = load i32, ptr %33, align 4
  %indvars.iv.next69 = add nuw nsw i64 %indvars.iv68, 4
  %35 = getelementptr inbounds i32, ptr %1, i64 %32
  %36 = load i32, ptr %35, align 4
  %37 = sext i32 %29 to i64
  %38 = getelementptr inbounds %union.t_iparams, ptr %2, i64 %37
  %39 = load float, ptr %38, align 4
  %40 = getelementptr inbounds i8, ptr %38, i64 4
  %41 = load float, ptr %40, align 4
  %42 = getelementptr inbounds i8, ptr %38, i64 8
  %43 = load float, ptr %42, align 4
  %44 = sext i32 %31 to i64
  %45 = getelementptr inbounds [3 x float], ptr %3, i64 %44
  %46 = sext i32 %34 to i64
  %47 = getelementptr inbounds [3 x float], ptr %3, i64 %46
  br i1 %.not.i, label %55, label %48

48:                                               ; preds = %27
  %49 = call noundef i32 @_Z11pbc_dx_aiucPK5t_pbcPKfS3_Pf(ptr noundef nonnull %6, ptr noundef %45, ptr noundef %47, ptr noundef nonnull %15)
  %50 = sext i32 %36 to i64
  %51 = getelementptr inbounds [3 x float], ptr %3, i64 %50
  %52 = call noundef i32 @_Z11pbc_dx_aiucPK5t_pbcPKfS3_Pf(ptr noundef nonnull %6, ptr noundef %51, ptr noundef %47, ptr noundef nonnull %16)
  %53 = load <2 x float>, ptr %15, align 8
  %.pre72 = load float, ptr %20, align 8
  %54 = load <2 x float>, ptr %16, align 8
  %.pre75 = load float, ptr %21, align 8
  br label %_ZN12_GLOBAL__N_112pbc_rvec_subEPK5t_pbcPKfS4_Pf.exit62

55:                                               ; preds = %27
  %56 = load <2 x float>, ptr %45, align 4
  %57 = load <2 x float>, ptr %47, align 4
  %58 = fsub <2 x float> %56, %57
  %59 = getelementptr inbounds i8, ptr %45, i64 8
  %60 = load float, ptr %59, align 4
  %61 = getelementptr inbounds i8, ptr %47, i64 8
  %62 = load float, ptr %61, align 4
  %63 = fsub float %60, %62
  store <2 x float> %58, ptr %15, align 8
  store float %63, ptr %20, align 8
  %64 = sext i32 %36 to i64
  %65 = getelementptr inbounds [3 x float], ptr %3, i64 %64
  %66 = load <2 x float>, ptr %65, align 4
  %67 = fsub <2 x float> %66, %57
  %68 = getelementptr inbounds i8, ptr %65, i64 8
  %69 = load float, ptr %68, align 4
  %70 = fsub float %69, %62
  store <2 x float> %67, ptr %16, align 8
  store float %70, ptr %21, align 8
  br label %_ZN12_GLOBAL__N_112pbc_rvec_subEPK5t_pbcPKfS4_Pf.exit62

_ZN12_GLOBAL__N_112pbc_rvec_subEPK5t_pbcPKfS4_Pf.exit62: ; preds = %48, %55
  %71 = phi float [ %.pre75, %48 ], [ %70, %55 ]
  %72 = phi float [ %.pre72, %48 ], [ %63, %55 ]
  %73 = phi i64 [ %50, %48 ], [ %64, %55 ]
  %74 = phi <2 x float> [ %53, %48 ], [ %58, %55 ]
  %75 = phi <2 x float> [ %54, %48 ], [ %67, %55 ]
  %76 = fmul <2 x float> %74, %74
  %77 = extractelement <2 x float> %76, i64 1
  %78 = extractelement <2 x float> %74, i64 0
  %79 = call float @llvm.fmuladd.f32(float %78, float %78, float %77)
  %80 = call noundef float @llvm.fmuladd.f32(float %72, float %72, float %79)
  %sqrt.i.i = call noundef float @llvm.sqrt.f32(float %80)
  %81 = fmul <2 x float> %75, %75
  %82 = extractelement <2 x float> %81, i64 1
  %83 = extractelement <2 x float> %75, i64 0
  %84 = call float @llvm.fmuladd.f32(float %83, float %83, float %82)
  %85 = call noundef float @llvm.fmuladd.f32(float %71, float %71, float %84)
  %sqrt.i.i63 = call noundef float @llvm.sqrt.f32(float %85)
  %86 = fsub float %sqrt.i.i, %39
  %87 = fsub float %sqrt.i.i63, %41
  %88 = fmul float %43, %86
  %89 = fmul float %88, %87
  %90 = fneg float %43
  %91 = fmul float %87, %90
  %92 = fdiv float %91, %sqrt.i.i
  %93 = insertelement <2 x float> poison, float %92, i64 0
  %94 = shufflevector <2 x float> %93, <2 x float> poison, <2 x i32> zeroinitializer
  %95 = fmul <2 x float> %74, %94
  store <2 x float> %95, ptr %17, align 8
  %96 = fmul float %72, %92
  store float %96, ptr %22, align 8
  %97 = fmul float %86, %90
  %98 = fdiv float %97, %sqrt.i.i63
  %99 = insertelement <2 x float> poison, float %98, i64 0
  %100 = shufflevector <2 x float> %99, <2 x float> poison, <2 x i32> zeroinitializer
  %101 = fmul <2 x float> %75, %100
  store <2 x float> %101, ptr %18, align 8
  %102 = fmul float %71, %98
  store float %102, ptr %23, align 8
  br label %103

103:                                              ; preds = %_ZN12_GLOBAL__N_112pbc_rvec_subEPK5t_pbcPKfS4_Pf.exit62, %103
  %indvars.iv = phi i64 [ 0, %_ZN12_GLOBAL__N_112pbc_rvec_subEPK5t_pbcPKfS4_Pf.exit62 ], [ %indvars.iv.next, %103 ]
  %104 = getelementptr inbounds [3 x float], ptr %17, i64 0, i64 %indvars.iv
  %105 = load float, ptr %104, align 4
  %106 = fneg float %105
  %107 = getelementptr inbounds [3 x float], ptr %18, i64 0, i64 %indvars.iv
  %108 = load float, ptr %107, align 4
  %109 = fsub float %106, %108
  %110 = getelementptr inbounds [4 x float], ptr %4, i64 %44, i64 %indvars.iv
  %111 = load float, ptr %110, align 4
  %112 = fadd float %105, %111
  store float %112, ptr %110, align 4
  %113 = getelementptr inbounds [4 x float], ptr %4, i64 %46, i64 %indvars.iv
  %114 = load float, ptr %113, align 4
  %115 = fadd float %109, %114
  store float %115, ptr %113, align 4
  %116 = getelementptr inbounds [4 x float], ptr %4, i64 %73, i64 %indvars.iv
  %117 = load float, ptr %116, align 4
  %118 = fadd float %108, %117
  store float %118, ptr %116, align 4
  %indvars.iv.next = add nuw nsw i64 %indvars.iv, 1
  %exitcond.not = icmp eq i64 %indvars.iv.next, 3
  br i1 %exitcond.not, label %.loopexit, label %103, !llvm.loop !178

._crit_edge:                                      ; preds = %.loopexit, %14
  %.059.lcssa = phi float [ 0.000000e+00, %14 ], [ %24, %.loopexit ]
  ret float %.059.lcssa
}